; Function Attrs: mustprogress nounwind uwtable
define dso_local noundef ptr @_ZN4llvm10emitStrLenEPNS_5ValueERNS_13IRBuilderBaseERKNS_10DataLayoutEPKNS_17TargetLibraryInfoE(ptr noundef %0, ptr noundef nonnull align 8 dereferenceable(128) %1, ptr nocapture noundef nonnull readnone align 8 dereferenceable(512) %2, ptr noundef %3) local_unnamed_addr #0 {
  %5 = alloca ptr, align 8
  %6 = alloca ptr, align 8
  store ptr %0, ptr %5, align 8
  %7 = getelementptr inbounds nuw i8, ptr %1, i64 72
  %8 = load ptr, ptr %7, align 8
  %9 = tail call noundef ptr @_ZN4llvm11PointerType3getERNS_11LLVMContextEj(ptr noundef nonnull align 8 dereferenceable(8) %8, i32 noundef 0) #7
  store ptr %9, ptr %6, align 8
  %10 = getelementptr inbounds nuw i8, ptr %1, i64 48
  %11 = load ptr, ptr %10, align 8
  %12 = tail call noundef ptr @_ZNK4llvm10BasicBlock9getModuleEv(ptr noundef nonnull align 8 dereferenceable(80) %11) #7
  %13 = load ptr, ptr %3, align 8
  %14 = tail call noundef i32 @_ZNK4llvm21TargetLibraryInfoImpl12getSizeTSizeERKNS_6ModuleE(ptr noundef nonnull align 8 dereferenceable(208) %13, ptr noundef nonnull align 8 dereferenceable(857) %12) #7
  %15 = load ptr, ptr %7, align 8
  %16 = tail call noundef ptr @_ZN4llvm4Type9getIntNTyERNS_11LLVMContextEj(ptr noundef nonnull align 8 dereferenceable(8) %15, i32 noundef %14) #7
  %17 = call fastcc noundef ptr @_ZL11emitLibCallN4llvm7LibFuncEPNS_4TypeENS_8ArrayRefIS2_EENS3_IPNS_5ValueEEERNS_13IRBuilderBaseEPKNS_17TargetLibraryInfoEb(i32 noundef 446, ptr noundef %16, ptr nonnull %6, i64 1, ptr nonnull %5, i64 1, ptr noundef nonnull align 8 dereferenceable(128) %1, ptr noundef nonnull %3, i1 noundef zeroext false)
  ret ptr %17
}